; Function Attrs: inlinehint mustprogress nounwind uwtable
define internal fastcc void @_ZN12_GLOBAL__N_115BoothPassWorkerD2Ev(ptr noundef nonnull readonly align 8 captures(none) dereferenceable(94) %0) unnamed_addr #4 align 2 personality ptr @__gxx_personality_v0 {
  %2 = getelementptr inbounds nuw i8, ptr %0, i64 8
  %3 = getelementptr inbounds nuw i8, ptr %0, i64 64
  %4 = load ptr, ptr %3, align 8, !tbaa !68
  %.not.i.i.i.i.i = icmp eq ptr %4, null
  br i1 %.not.i.i.i.i.i, label %_ZNSt6vectorIiSaIiEED2Ev.exit.i.i, label %5

5:                                                ; preds = %1
  %6 = getelementptr inbounds nuw i8, ptr %0, i64 80
  %7 = load ptr, ptr %6, align 8, !tbaa !113
  %8 = ptrtoint ptr %7 to i64
  %9 = ptrtoint ptr %4 to i64
  %10 = sub i64 %8, %9
  tail call void @_ZdlPvm(ptr noundef nonnull %4, i64 noundef %10) #26
  br label %_ZNSt6vectorIiSaIiEED2Ev.exit.i.i

_ZNSt6vectorIiSaIiEED2Ev.exit.i.i:                ; preds = %5, %1
  %11 = getelementptr inbounds nuw i8, ptr %0, i64 32
  %12 = load ptr, ptr %11, align 8, !tbaa !114
  %.not.i.i.i.i.i.i.i = icmp eq ptr %12, null
  br i1 %.not.i.i.i.i.i.i.i, label %_ZNSt6vectorIN5Yosys7hashlib4poolINS0_5RTLIL6SigBitENS1_8hash_opsIS4_EEE7entry_tESaIS8_EED2Ev.exit.i.i.i.i, label %13

13:                                               ; preds = %_ZNSt6vectorIiSaIiEED2Ev.exit.i.i
  %14 = getelementptr inbounds nuw i8, ptr %0, i64 48
  %15 = load ptr, ptr %14, align 8, !tbaa !115
  %16 = ptrtoint ptr %15 to i64
  %17 = ptrtoint ptr %12 to i64
  %18 = sub i64 %16, %17
  tail call void @_ZdlPvm(ptr noundef nonnull %12, i64 noundef %18) #26
  br label %_ZNSt6vectorIN5Yosys7hashlib4poolINS0_5RTLIL6SigBitENS1_8hash_opsIS4_EEE7entry_tESaIS8_EED2Ev.exit.i.i.i.i

_ZNSt6vectorIN5Yosys7hashlib4poolINS0_5RTLIL6SigBitENS1_8hash_opsIS4_EEE7entry_tESaIS8_EED2Ev.exit.i.i.i.i: ; preds = %13, %_ZNSt6vectorIiSaIiEED2Ev.exit.i.i
  %19 = load ptr, ptr %2, align 8, !tbaa !68
  %.not.i.i.i1.i.i.i.i = icmp eq ptr %19, null
  br i1 %.not.i.i.i1.i.i.i.i, label %_ZN5Yosys6SigMapD2Ev.exit, label %20

20:                                               ; preds = %_ZNSt6vectorIN5Yosys7hashlib4poolINS0_5RTLIL6SigBitENS1_8hash_opsIS4_EEE7entry_tESaIS8_EED2Ev.exit.i.i.i.i
  %21 = getelementptr inbounds nuw i8, ptr %0, i64 24
  %22 = load ptr, ptr %21, align 8, !tbaa !113
  %23 = ptrtoint ptr %22 to i64
  %24 = ptrtoint ptr %19 to i64
  %25 = sub i64 %23, %24
  tail call void @_ZdlPvm(ptr noundef nonnull %19, i64 noundef %25) #26
  br label %_ZN5Yosys6SigMapD2Ev.exit

_ZN5Yosys6SigMapD2Ev.exit:                        ; preds = %_ZNSt6vectorIN5Yosys7hashlib4poolINS0_5RTLIL6SigBitENS1_8hash_opsIS4_EEE7entry_tESaIS8_EED2Ev.exit.i.i.i.i, %20
  ret void
}